###############################################################################
#                                                                             #
# IAR ELF Linker V6.50.1.4415/W32 for ARM               30/Aug/2016  09:55:28 #
# Copyright 2007-2012 IAR Systems AB.                                         #
#                                                                             #
#    Output file  =  C:\Tools\WL9F\WLF Monitor -                              #
#                    STM32_APP\TEST_AAVM\Project\Debug\Exe\WL9F_Monitor_APP.o #
#                    ut                                                       #
#    Map file     =  C:\Tools\WL9F\WLF Monitor -                              #
#                    STM32_APP\TEST_AAVM\Project\Debug\List\WL9F_Monitor_APP. #
#                    map                                                      #
#    Command line =  "C:\Tools\WL9F\WLF Monitor -                             #
#                    STM32_APP\TEST_AAVM\Platform\COMMON\SRC\endecoder.o"     #
#                    "C:\Tools\WL9F\WLF Monitor -                             #
#                    STM32_APP\TEST_AAVM\Project\Debug\Obj\Buzzer.o"          #
#                    "C:\Tools\WL9F\WLF Monitor -                             #
#                    STM32_APP\TEST_AAVM\Project\Debug\Obj\CAN_Control.o"     #
#                    "C:\Tools\WL9F\WLF Monitor -                             #
#                    STM32_APP\TEST_AAVM\Project\Debug\Obj\DPRAM_Control.o"   #
#                    "C:\Tools\WL9F\WLF Monitor -                             #
#                    STM32_APP\TEST_AAVM\Project\Debug\Obj\FM31X4.o"          #
#                    "C:\Tools\WL9F\WLF Monitor -                             #
#                    STM32_APP\TEST_AAVM\Project\Debug\Obj\GPIO_Control.o"    #
#                    "C:\Tools\WL9F\WLF Monitor -                             #
#                    STM32_APP\TEST_AAVM\Project\Debug\Obj\Hardware_Version.o #
#                    " "C:\Tools\WL9F\WLF Monitor -                           #
#                    STM32_APP\TEST_AAVM\Project\Debug\Obj\KeySwitch.o"       #
#                    "C:\Tools\WL9F\WLF Monitor -                             #
#                    STM32_APP\TEST_AAVM\Project\Debug\Obj\LAMP_Control.o"    #
#                    "C:\Tools\WL9F\WLF Monitor -                             #
#                    STM32_APP\TEST_AAVM\Project\Debug\Obj\LCD_Control.o"     #
#                    "C:\Tools\WL9F\WLF Monitor -                             #
#                    STM32_APP\TEST_AAVM\Project\Debug\Obj\M25PXX.o"          #
#                    "C:\Tools\WL9F\WLF Monitor -                             #
#                    STM32_APP\TEST_AAVM\Project\Debug\Obj\RTC.o"             #
#                    "C:\Tools\WL9F\WLF Monitor -                             #
#                    STM32_APP\TEST_AAVM\Project\Debug\Obj\System_Debug.o"    #
#                    "C:\Tools\WL9F\WLF Monitor -                             #
#                    STM32_APP\TEST_AAVM\Project\Debug\Obj\System_Init.o"     #
#                    "C:\Tools\WL9F\WLF Monitor -                             #
#                    STM32_APP\TEST_AAVM\Project\Debug\Obj\TW2835_Control.o"  #
#                    "C:\Tools\WL9F\WLF Monitor -                             #
#                    STM32_APP\TEST_AAVM\Project\Debug\Obj\TW2835_OSD.o"      #
#                    "C:\Tools\WL9F\WLF Monitor -                             #
#                    STM32_APP\TEST_AAVM\Project\Debug\Obj\TW8816_Control.o"  #
#                    "C:\Tools\WL9F\WLF Monitor -                             #
#                    STM32_APP\TEST_AAVM\Project\Debug\Obj\TW8816_OSD.o"      #
#                    "C:\Tools\WL9F\WLF Monitor -                             #
#                    STM32_APP\TEST_AAVM\Project\Debug\Obj\TW8832_Control.o"  #
#                    "C:\Tools\WL9F\WLF Monitor -                             #
#                    STM32_APP\TEST_AAVM\Project\Debug\Obj\TW8832_OSD.o"      #
#                    "C:\Tools\WL9F\WLF Monitor -                             #
#                    STM32_APP\TEST_AAVM\Project\Debug\Obj\TimeDelay.o"       #
#                    "C:\Tools\WL9F\WLF Monitor -                             #
#                    STM32_APP\TEST_AAVM\Project\Debug\Obj\UART_Control.o"    #
#                    "C:\Tools\WL9F\WLF Monitor -                             #
#                    STM32_APP\TEST_AAVM\Project\Debug\Obj\WL9F_Monitor_APP.o #
#                    " "C:\Tools\WL9F\WLF Monitor -                           #
#                    STM32_APP\TEST_AAVM\Project\Debug\Obj\main.o"            #
#                    "C:\Tools\WL9F\WLF Monitor -                             #
#                    STM32_APP\TEST_AAVM\Project\Debug\Obj\misc.o"            #
#                    "C:\Tools\WL9F\WLF Monitor -                             #
#                    STM32_APP\TEST_AAVM\Project\Debug\Obj\startup_stm32f4xx. #
#                    o" "C:\Tools\WL9F\WLF Monitor -                          #
#                    STM32_APP\TEST_AAVM\Project\Debug\Obj\stm324xg_eval.o"   #
#                    "C:\Tools\WL9F\WLF Monitor -                             #
#                    STM32_APP\TEST_AAVM\Project\Debug\Obj\stm32f4xx_adc.o"   #
#                    "C:\Tools\WL9F\WLF Monitor -                             #
#                    STM32_APP\TEST_AAVM\Project\Debug\Obj\stm32f4xx_can.o"   #
#                    "C:\Tools\WL9F\WLF Monitor -                             #
#                    STM32_APP\TEST_AAVM\Project\Debug\Obj\stm32f4xx_crc.o"   #
#                    "C:\Tools\WL9F\WLF Monitor -                             #
#                    STM32_APP\TEST_AAVM\Project\Debug\Obj\stm32f4xx_cryp.o"  #
#                    "C:\Tools\WL9F\WLF Monitor -                             #
#                    STM32_APP\TEST_AAVM\Project\Debug\Obj\stm32f4xx_cryp_aes #
#                    .o" "C:\Tools\WL9F\WLF Monitor -                         #
#                    STM32_APP\TEST_AAVM\Project\Debug\Obj\stm32f4xx_cryp_des #
#                    .o" "C:\Tools\WL9F\WLF Monitor -                         #
#                    STM32_APP\TEST_AAVM\Project\Debug\Obj\stm32f4xx_cryp_tde #
#                    s.o" "C:\Tools\WL9F\WLF Monitor -                        #
#                    STM32_APP\TEST_AAVM\Project\Debug\Obj\stm32f4xx_dac.o"   #
#                    "C:\Tools\WL9F\WLF Monitor -                             #
#                    STM32_APP\TEST_AAVM\Project\Debug\Obj\stm32f4xx_dbgmcu.o #
#                    " "C:\Tools\WL9F\WLF Monitor -                           #
#                    STM32_APP\TEST_AAVM\Project\Debug\Obj\stm32f4xx_dcmi.o"  #
#                    "C:\Tools\WL9F\WLF Monitor -                             #
#                    STM32_APP\TEST_AAVM\Project\Debug\Obj\stm32f4xx_dma.o"   #
#                    "C:\Tools\WL9F\WLF Monitor -                             #
#                    STM32_APP\TEST_AAVM\Project\Debug\Obj\stm32f4xx_exti.o"  #
#                    "C:\Tools\WL9F\WLF Monitor -                             #
#                    STM32_APP\TEST_AAVM\Project\Debug\Obj\stm32f4xx_flash.o" #
#                     "C:\Tools\WL9F\WLF Monitor -                            #
#                    STM32_APP\TEST_AAVM\Project\Debug\Obj\stm32f4xx_fsmc.o"  #
#                    "C:\Tools\WL9F\WLF Monitor -                             #
#                    STM32_APP\TEST_AAVM\Project\Debug\Obj\stm32f4xx_gpio.o"  #
#                    "C:\Tools\WL9F\WLF Monitor -                             #
#                    STM32_APP\TEST_AAVM\Project\Debug\Obj\stm32f4xx_hash.o"  #
#                    "C:\Tools\WL9F\WLF Monitor -                             #
#                    STM32_APP\TEST_AAVM\Project\Debug\Obj\stm32f4xx_hash_md5 #
#                    .o" "C:\Tools\WL9F\WLF Monitor -                         #
#                    STM32_APP\TEST_AAVM\Project\Debug\Obj\stm32f4xx_hash_sha #
#                    1.o" "C:\Tools\WL9F\WLF Monitor -                        #
#                    STM32_APP\TEST_AAVM\Project\Debug\Obj\stm32f4xx_i2c.o"   #
#                    "C:\Tools\WL9F\WLF Monitor -                             #
#                    STM32_APP\TEST_AAVM\Project\Debug\Obj\stm32f4xx_it.o"    #
#                    "C:\Tools\WL9F\WLF Monitor -                             #
#                    STM32_APP\TEST_AAVM\Project\Debug\Obj\stm32f4xx_iwdg.o"  #
#                    "C:\Tools\WL9F\WLF Monitor -                             #
#                    STM32_APP\TEST_AAVM\Project\Debug\Obj\stm32f4xx_pwr.o"   #
#                    "C:\Tools\WL9F\WLF Monitor -                             #
#                    STM32_APP\TEST_AAVM\Project\Debug\Obj\stm32f4xx_rcc.o"   #
#                    "C:\Tools\WL9F\WLF Monitor -                             #
#                    STM32_APP\TEST_AAVM\Project\Debug\Obj\stm32f4xx_rng.o"   #
#                    "C:\Tools\WL9F\WLF Monitor -                             #
#                    STM32_APP\TEST_AAVM\Project\Debug\Obj\stm32f4xx_rtc.o"   #
#                    "C:\Tools\WL9F\WLF Monitor -                             #
#                    STM32_APP\TEST_AAVM\Project\Debug\Obj\stm32f4xx_sdio.o"  #
#                    "C:\Tools\WL9F\WLF Monitor -                             #
#                    STM32_APP\TEST_AAVM\Project\Debug\Obj\stm32f4xx_spi.o"   #
#                    "C:\Tools\WL9F\WLF Monitor -                             #
#                    STM32_APP\TEST_AAVM\Project\Debug\Obj\stm32f4xx_syscfg.o #
#                    " "C:\Tools\WL9F\WLF Monitor -                           #
#                    STM32_APP\TEST_AAVM\Project\Debug\Obj\stm32f4xx_tim.o"   #
#                    "C:\Tools\WL9F\WLF Monitor -                             #
#                    STM32_APP\TEST_AAVM\Project\Debug\Obj\stm32f4xx_usart.o" #
#                     "C:\Tools\WL9F\WLF Monitor -                            #
#                    STM32_APP\TEST_AAVM\Project\Debug\Obj\stm32f4xx_wwdg.o"  #
#                    "C:\Tools\WL9F\WLF Monitor -                             #
#                    STM32_APP\TEST_AAVM\Project\Debug\Obj\system_stm32f4xx.o #
#                    " --redirect _Printf=_PrintfFull --redirect              #
#                    _Scanf=_ScanfFull -o "C:\Tools\WL9F\WLF Monitor -        #
#                    STM32_APP\TEST_AAVM\Project\Debug\Exe\WL9F_Monitor_APP.o #
#                    ut" --map "C:\Tools\WL9F\WLF Monitor -                   #
#                    STM32_APP\TEST_AAVM\Project\Debug\List\WL9F_Monitor_APP. #
#                    map" --config "C:\Tools\WL9F\WLF Monitor -               #
#                    STM32_APP\TEST_AAVM\Project\LinkerConfiguration\stm32f4x #
#                    x_flash.icf" --semihosting --entry __iar_program_start   #
#                    --vfe                                                    #
#                                                                             #
#                                                                             #
###############################################################################

*******************************************************************************
*** RUNTIME MODEL ATTRIBUTES
***

CppFlavor                     = *
__Heap_Handler                = Basic
__SystemLibrary               = DLib
__dlib_dynamic_initialization = normal


*******************************************************************************
*** PLACEMENT SUMMARY
***

"A1":  place at 0x08004000 { ro section .intvec };
"P1":  place in [from 0x08004000 to 0x080fffff] { ro };
"P2":  place in [from 0x20000000 to 0x2001ffff] { rw, block CSTACK, block HEAP };

  Section             Kind        Address    Size  Object
  -------             ----        -------    ----  ------
"A1":                                       0x188
  .intvec             ro code  0x08004000   0x188  startup_stm32f4xx.o [2]
                             - 0x08004188   0x188

"P1":                                      0xe3e0
  .text               ro code  0x08004188  0x2ee0  TW8816_OSD.o [2]
  .text               ro code  0x08007068   0x4fc  TW8816_Control.o [2]
  .text               ro code  0x08007564   0x600  stm32f4xx_gpio.o [2]
  .text               ro code  0x08007b64    0x7a  TimeDelay.o [2]
  .text               ro code  0x08007bde    0x22  zero_init3.o [6]
  .text               ro code  0x08007c00   0x188  TW8832_Control.o [2]
  .text               ro code  0x08007d88  0x189c  TW2835_Control.o [2]
  .text               ro code  0x08009624    0x34  main.o [2]
  .text               ro code  0x08009658   0x460  TW2835_OSD.o [2]
  .text               ro code  0x08009ab8   0xc40  WL9F_Monitor_APP.o [2]
  .text               ro code  0x0800a6f8    0xe2  stm324xg_eval.o [2]
  .text               ro code  0x0800a7dc   0x5e8  RTC.o [2]
  .text               ro code  0x0800adc4   0x388  FM31X4.o [2]
  .text               ro code  0x0800b14c    0xe0  rand.o [4]
  .text               ro code  0x0800b22c   0x1fc  UART_Control.o [2]
  .text               ro code  0x0800b428   0x6ec  M25PXX.o [2]
  .text               ro code  0x0800bb14    0xb8  GPIO_Control.o [2]
  .text               ro code  0x0800bbcc    0x9c  Buzzer.o [2]
  .text               ro code  0x0800bc68   0x2c0  KeySwitch.o [2]
  .text               ro code  0x0800bf28   0x598  stm32f4xx_usart.o [2]
  .text               ro code  0x0800c4c0   0x64c  stm32f4xx_can.o [2]
  .text               ro code  0x0800cb0c   0x1f0  LAMP_Control.o [2]
  .text               ro code  0x0800ccfc   0x1fc  LCD_Control.o [2]
  .text               ro code  0x0800cef8   0x1e0  endecoder.o [1]
  .text               ro code  0x0800d0d8   0x764  CAN_Control.o [2]
  .text               ro code  0x0800d83c    0xc4  Hardware_Version.o [2]
  .text               ro code  0x0800d900   0xb90  System_Init.o [2]
  .text               ro code  0x0800e490   0x800  stm32f4xx_it.o [2]
  .text               ro code  0x0800ec90   0x2e8  stm32f4xx_rcc.o [2]
  .text               ro code  0x0800ef78     0x2  xtls.o [4]
  .text               ro code  0x0800ef7c   0x140  misc.o [2]
  .text               ro code  0x0800f0bc   0x7d8  stm32f4xx_dma.o [2]
  .text               ro code  0x0800f894    0x76  ABImemcpy.o [6]
  .text               ro code  0x0800f90c    0x3a  ABImemset48.o [6]
  .text               ro code  0x0800f948    0x62  memcmp.o [6]
  .text               ro code  0x0800f9ac   0x618  stm32f4xx_tim.o [2]
  .text               ro code  0x0800ffc4     0x6  ABImemclr4.o [6]
  .text               ro code  0x0800ffca    0x14  CAN_Control.o [2]
  .text               ro code  0x0800ffe0    0x66  ABImemset.o [6]
  .text               ro code  0x08010048   0x578  stm32f4xx_adc.o [2]
  .text               ro code  0x080105c0     0x6  ABImemclr.o [6]
  .text               ro code  0x080105c6   0x1a4  lz77_init.o [6]
  .text               ro code  0x0801076a     0x6  abort.o [4]
  .text               ro code  0x08010770    0x14  exit.o [7]
  .text               ro code  0x08010784    0xf0  system_stm32f4xx.o [2]
  .rodata             const    0x08010874    0x40  endecoder.o [1]
  .text               ro code  0x080108b4    0x28  data_init.o [6]
  .iar.init_table     const    0x080108dc    0x2c  - Linker created -
  .text               ro code  0x08010908    0x1a  fpinit_M.o [5]
  .text               ro code  0x08010924    0x16  cmain.o [6]
  .text               ro code  0x0801093a     0x4  low_level_init.o [4]
  .text               ro code  0x0801093e     0x4  exit.o [4]
  .text               ro code  0x08010944     0xa  cexit.o [6]
  .rodata             const    0x08010950    0x10  endecoder.o [1]
  .text               ro code  0x08010960    0x10  startup_stm32f4xx.o [2]
  .text               ro code  0x08010970     0xc  cstartup_M.o [6]
  .text               ro code  0x0801097c     0x4  startup_stm32f4xx.o [2]
  .text               ro code  0x08010980     0x4  startup_stm32f4xx.o [2]
  .text               ro code  0x08010984     0x4  startup_stm32f4xx.o [2]
  .text               ro code  0x08010988     0x4  startup_stm32f4xx.o [2]
  .text               ro code  0x0801098c     0x4  startup_stm32f4xx.o [2]
  .text               ro code  0x08010990     0x4  startup_stm32f4xx.o [2]
  .text               ro code  0x08010994     0x4  startup_stm32f4xx.o [2]
  .text               ro code  0x08010998     0x4  startup_stm32f4xx.o [2]
  .text               ro code  0x0801099c     0x4  startup_stm32f4xx.o [2]
  .text               ro code  0x080109a0     0x4  startup_stm32f4xx.o [2]
  .text               ro code  0x080109a4     0x4  startup_stm32f4xx.o [2]
  .text               ro code  0x080109a8     0x4  startup_stm32f4xx.o [2]
  .text               ro code  0x080109ac     0x4  startup_stm32f4xx.o [2]
  .text               ro code  0x080109b0     0x4  startup_stm32f4xx.o [2]
  .text               ro code  0x080109b4     0x4  startup_stm32f4xx.o [2]
  .text               ro code  0x080109b8     0x4  startup_stm32f4xx.o [2]
  .text               ro code  0x080109bc     0x4  startup_stm32f4xx.o [2]
  .text               ro code  0x080109c0     0x4  startup_stm32f4xx.o [2]
  .text               ro code  0x080109c4     0x4  startup_stm32f4xx.o [2]
  .text               ro code  0x080109c8     0x4  startup_stm32f4xx.o [2]
  .text               ro code  0x080109cc     0x4  startup_stm32f4xx.o [2]
  .text               ro code  0x080109d0     0x4  startup_stm32f4xx.o [2]
  .text               ro code  0x080109d4     0x4  startup_stm32f4xx.o [2]
  .text               ro code  0x080109d8     0x4  startup_stm32f4xx.o [2]
  .text               ro code  0x080109dc     0x4  startup_stm32f4xx.o [2]
  .text               ro code  0x080109e0     0x4  startup_stm32f4xx.o [2]
  .text               ro code  0x080109e4     0x4  startup_stm32f4xx.o [2]
  .text               ro code  0x080109e8     0x4  startup_stm32f4xx.o [2]
  .text               ro code  0x080109ec     0x4  startup_stm32f4xx.o [2]
  .text               ro code  0x080109f0     0x4  startup_stm32f4xx.o [2]
  .text               ro code  0x080109f4     0x4  startup_stm32f4xx.o [2]
  .text               ro code  0x080109f8     0x4  startup_stm32f4xx.o [2]
  .text               ro code  0x080109fc     0x4  startup_stm32f4xx.o [2]
  .text               ro code  0x08010a00     0x4  startup_stm32f4xx.o [2]
  .text               ro code  0x08010a04     0x4  startup_stm32f4xx.o [2]
  .text               ro code  0x08010a08     0x4  startup_stm32f4xx.o [2]
  .text               ro code  0x08010a0c     0x4  startup_stm32f4xx.o [2]
  .text               ro code  0x08010a10     0x4  startup_stm32f4xx.o [2]
  .text               ro code  0x08010a14     0x4  startup_stm32f4xx.o [2]
  .text               ro code  0x08010a18     0x4  startup_stm32f4xx.o [2]
  .text               ro code  0x08010a1c     0x4  startup_stm32f4xx.o [2]
  .text               ro code  0x08010a20     0x4  startup_stm32f4xx.o [2]
  .text               ro code  0x08010a24     0x4  startup_stm32f4xx.o [2]
  .text               ro code  0x08010a28     0x4  startup_stm32f4xx.o [2]
  .text               ro code  0x08010a2c     0x4  startup_stm32f4xx.o [2]
  .text               ro code  0x08010a30     0x4  startup_stm32f4xx.o [2]
  .text               ro code  0x08010a34     0x4  startup_stm32f4xx.o [2]
  .text               ro code  0x08010a38     0x4  startup_stm32f4xx.o [2]
  .text               ro code  0x08010a3c     0x4  startup_stm32f4xx.o [2]
  .text               ro code  0x08010a40     0x4  startup_stm32f4xx.o [2]
  .text               ro code  0x08010a44     0x4  startup_stm32f4xx.o [2]
  .text               ro code  0x08010a48     0x4  startup_stm32f4xx.o [2]
  .text               ro code  0x08010a4c     0x4  startup_stm32f4xx.o [2]
  .text               ro code  0x08010a50     0x4  startup_stm32f4xx.o [2]
  .text               ro code  0x08010a54     0x4  startup_stm32f4xx.o [2]
  .text               ro code  0x08010a58     0x4  startup_stm32f4xx.o [2]
  .text               ro code  0x08010a5c     0x4  startup_stm32f4xx.o [2]
  .text               ro code  0x08010a60     0x4  startup_stm32f4xx.o [2]
  .text               ro code  0x08010a64     0x4  startup_stm32f4xx.o [2]
  .text               ro code  0x08010a68     0x4  startup_stm32f4xx.o [2]
  .text               ro code  0x08010a6c     0x4  startup_stm32f4xx.o [2]
  .text               ro code  0x08010a70     0x4  startup_stm32f4xx.o [2]
  .text               ro code  0x08010a74     0x4  startup_stm32f4xx.o [2]
  .text               ro code  0x08010a78     0x4  startup_stm32f4xx.o [2]
  .text               ro code  0x08010a7c     0x4  startup_stm32f4xx.o [2]
  .text               ro code  0x08010a80     0x4  startup_stm32f4xx.o [2]
  .text               ro code  0x08010a84     0x4  startup_stm32f4xx.o [2]
  .text               ro code  0x08010a88     0x4  startup_stm32f4xx.o [2]
  .text               ro code  0x08010a8c     0x4  startup_stm32f4xx.o [2]
  .text               ro code  0x08010a90     0x4  startup_stm32f4xx.o [2]
  .text               ro code  0x08010a94     0x4  startup_stm32f4xx.o [2]
  .text               ro code  0x08010a98     0x4  startup_stm32f4xx.o [2]
  .text               ro code  0x08010a9c     0x4  startup_stm32f4xx.o [2]
  .text               ro code  0x08010aa0     0x4  startup_stm32f4xx.o [2]
  .text               ro code  0x08010aa4     0x4  startup_stm32f4xx.o [2]
  .text               ro code  0x08010aa8     0x4  startup_stm32f4xx.o [2]
  .text               ro code  0x08010aac     0x4  startup_stm32f4xx.o [2]
  .text               ro code  0x08010ab0     0x4  startup_stm32f4xx.o [2]
  .text               ro code  0x08010ab4     0x4  startup_stm32f4xx.o [2]
  .text               ro code  0x08010ab8     0x4  startup_stm32f4xx.o [2]
  .text               ro code  0x08010abc     0x4  startup_stm32f4xx.o [2]
  .text               ro code  0x08010ac0     0x4  startup_stm32f4xx.o [2]
  .text               ro code  0x08010ac4     0x4  startup_stm32f4xx.o [2]
  .text               ro code  0x08010ac8     0x4  startup_stm32f4xx.o [2]
  .text               ro code  0x08010acc     0x4  startup_stm32f4xx.o [2]
  .text               ro code  0x08010ad0     0x4  startup_stm32f4xx.o [2]
  .text               ro code  0x08010ad4     0x4  startup_stm32f4xx.o [2]
  .text               ro code  0x08010ad8     0x4  startup_stm32f4xx.o [2]
  .text               ro code  0x08010adc     0x4  startup_stm32f4xx.o [2]
  .text               ro code  0x08010ae0     0x4  startup_stm32f4xx.o [2]
  .text               ro code  0x08010ae4     0x4  startup_stm32f4xx.o [2]
  .rodata             const    0x08010ae8     0x0  zero_init3.o [6]
  .rodata             const    0x08010ae8     0x0  lz77_init.o [6]
  Initializer bytes   ro data  0x08010ae8  0x1a80  <for P2 s0>
                             - 0x08012568  0xe3e0

"P2", part 1 of 3:                         0xdbc8
  P2 s0                        0x20000000  0xdbc7  <Init block>
    .data             inited   0x20000000  0x71e8  TW8816_Control.o [2]
    .data             inited   0x200071e8  0x2718  TW2835_OSD.o [2]
    .data             inited   0x20009900  0x2718  TW2835_OSD.o [2]
    .data             inited   0x2000c018   0x41c  M25PXX.o [2]
    .data             inited   0x2000c434   0x404  TW8816_Control.o [2]
    .data             inited   0x2000c838   0x378  TW2835_OSD.o [2]
    .data             inited   0x2000cbb0   0x378  TW2835_OSD.o [2]
    .data             inited   0x2000cf28   0x378  TW2835_OSD.o [2]
    .data             inited   0x2000d2a0   0x378  TW2835_OSD.o [2]
    .data             inited   0x2000d618   0x200  TW2835_Control.o [2]
    .data             inited   0x2000d818   0x170  TW8832_Control.o [2]
    .data             inited   0x2000d988    0xd8  TW2835_Control.o [2]
    __DLIB_PERTHREAD  inited   0x2000da60    0x8c  rand.o [4]
    .data             inited   0x2000daec    0x50  TW2835_OSD.o [2]
    .data             inited   0x2000db3c    0x3c  KeySwitch.o [2]
    .data             inited   0x2000db78    0x14  UART_Control.o [2]
    .data             inited   0x2000db8c    0x14  system_stm32f4xx.o [2]
    .data             inited   0x2000dba0    0x10  stm32f4xx_rcc.o [2]
    .data             inited   0x2000dbb0     0xc  stm324xg_eval.o [2]
    .data             inited   0x2000dbbc     0x4  endecoder.o [1]
    .data             inited   0x2000dbc0     0x1  LCD_Control.o [2]
    .data             inited   0x2000dbc1     0x1  LCD_Control.o [2]
    .data             inited   0x2000dbc2     0x1  LCD_Control.o [2]
    .data             inited   0x2000dbc3     0x1  LCD_Control.o [2]
    .data             inited   0x2000dbc4     0x1  LCD_Control.o [2]
    .data             inited   0x2000dbc5     0x1  LCD_Control.o [2]
    .data             inited   0x2000dbc6     0x1  LCD_Control.o [2]
                             - 0x2000dbc7  0xdbc7

"P2", part 2 of 3:                         0x2da0
  .bss                zero     0x2000dbc8  0x10f4  CAN_Control.o [2]
  .bss                zero     0x2000ecbc   0xc00  CAN_Control.o [2]
  .bss                zero     0x2000f8bc   0x408  WL9F_Monitor_APP.o [2]
  .bss                zero     0x2000fcc4   0x408  WL9F_Monitor_APP.o [2]
  .bss                zero     0x200100cc   0x330  stm32f4xx_it.o [2]
  .bss                zero     0x200103fc   0x214  WL9F_Monitor_APP.o [2]
  .bss                zero     0x20010610   0x158  CAN_Control.o [2]
  .bss                zero     0x20010768    0x6a  CAN_Control.o [2]
  .bss                zero     0x200107d2     0x2  Buzzer.o [2]
  .bss                zero     0x200107d4    0x5c  LAMP_Control.o [2]
  .bss                zero     0x20010830    0x3c  WL9F_Monitor_APP.o [2]
  .bss                zero     0x2001086c    0x3a  WL9F_Monitor_APP.o [2]
  .bss                zero     0x200108a6     0x2  CAN_Control.o [2]
  .bss                zero     0x200108a8    0x28  WL9F_Monitor_APP.o [2]
  .bss                zero     0x200108d0    0x15  stm32f4xx_it.o [2]
  .bss                zero     0x200108e6     0x2  stm32f4xx_it.o [2]
  .bss                zero     0x200108e8    0x11  stm32f4xx_it.o [2]
  .bss                zero     0x200108f9     0x1  LAMP_Control.o [2]
  .bss                zero     0x200108fa     0x1  LAMP_Control.o [2]
  .bss                zero     0x200108fb     0x1  LCD_Control.o [2]
  .bss                zero     0x200108fc    0x10  WL9F_Monitor_APP.o [2]
  .bss                zero     0x2001090c    0x10  WL9F_Monitor_APP.o [2]
  .bss                zero     0x2001091c     0xc  LAMP_Control.o [2]
  .bss                zero     0x20010928     0x8  WL9F_Monitor_APP.o [2]
  .bss                zero     0x20010930     0x8  WL9F_Monitor_APP.o [2]
  .bss                zero     0x20010938     0x8  WL9F_Monitor_APP.o [2]
  .bss                zero     0x20010940     0x8  stm32f4xx_it.o [2]
  .bss                zero     0x20010948     0x4  Hardware_Version.o [2]
  .bss                zero     0x2001094c     0x4  TimeDelay.o [2]
  .bss                zero     0x20010950     0x4  WL9F_Monitor_APP.o [2]
  .bss                zero     0x20010954     0x4  WL9F_Monitor_APP.o [2]
  .bss                zero     0x20010958     0x4  WL9F_Monitor_APP.o [2]
  .bss                zero     0x2001095c     0x1  LCD_Control.o [2]
  .bss                zero     0x2001095d     0x1  stm32f4xx_it.o [2]
  .bss                zero     0x2001095e     0x1  stm32f4xx_it.o [2]
  .bss                zero     0x2001095f     0x1  stm32f4xx_it.o [2]
  .bss                zero     0x20010960     0x1  stm32f4xx_it.o [2]
                             - 0x20010961  0x2d99

"P2", part 3 of 3:                          0x800
  CSTACK                       0x20010968   0x800  <Block>
    CSTACK            uninit   0x20010968   0x800  <Block tail>
                             - 0x20011168   0x800


*******************************************************************************
*** INIT TABLE
***

          Address     Size
          -------     ----
Zero (__iar_zero_init3)
    1 destination range, total size 0x2d99:
          0x2000dbc8  0x2d99

Copy/lz77 (__iar_lz77_init3)
    1 source range, total size 0x1a80 (12% of destination):
          0x08010ae8  0x1a80
    1 destination range, total size 0xdbc7:
          0x20000000  0xdbc7



*******************************************************************************
*** MODULE SUMMARY
***

    Module               ro code  ro data  rw data
    ------               -------  -------  -------
C:\Tools\WL9F\WLF Monitor - STM32_APP\TEST_AAVM\Platform\COMMON\SRC: [1]
    endecoder.o              480       81        4
    ----------------------------------------------
    Total:                   480       81        4

C:\Tools\WL9F\WLF Monitor - STM32_APP\TEST_AAVM\Project\Debug\Obj: [2]
    Buzzer.o                 156                 2
    CAN_Control.o          1 912             7 864
    FM31X4.o                 904
    GPIO_Control.o           184
    Hardware_Version.o       196                 4
    KeySwitch.o              704        7       60
    LAMP_Control.o           496               106
    LCD_Control.o            508        1        9
    M25PXX.o               1 772      127    1 052
    RTC.o                  1 512
    System_Init.o          2 960
    TW2835_Control.o       6 300       88      728
    TW2835_OSD.o           1 120    2 851   23 648
    TW8816_Control.o       1 276    3 640   30 188
    TW8816_OSD.o          12 000
    TW8832_Control.o         392       44      368
    TimeDelay.o              122                 4
    UART_Control.o           508        2       20
    WL9F_Monitor_APP.o     3 136             2 822
    main.o                    52
    misc.o                   320
    startup_stm32f4xx.o      772
    stm324xg_eval.o          226        1       12
    stm32f4xx_adc.o        1 400
    stm32f4xx_can.o        1 612
    stm32f4xx_dma.o        2 008
    stm32f4xx_gpio.o       1 536
    stm32f4xx_it.o         2 048               868
    stm32f4xx_rcc.o          744        2       16
    stm32f4xx_tim.o        1 560
    stm32f4xx_usart.o      1 432
    system_stm32f4xx.o       240        3       20
    ----------------------------------------------
    Total:                50 108    6 766   67 791

command line: [3]
    ----------------------------------------------
    Total:

dl7M_tlf.a: [4]
    abort.o                    6
    exit.o                     4
    low_level_init.o           4
    rand.o                   224       17      140
    xtls.o                     2
    ----------------------------------------------
    Total:                   240       17      140

m7M_tlv.a: [5]
    fpinit_M.o                26
    ----------------------------------------------
    Total:                    26

rt7M_tl.a: [6]
    ABImemclr.o                6
    ABImemclr4.o               6
    ABImemcpy.o              118
    ABImemset.o              102
    ABImemset48.o             58
    cexit.o                   10
    cmain.o                   22
    cstartup_M.o              12
    data_init.o               40
    lz77_init.o              420
    memcmp.o                  98
    zero_init3.o              34
    ----------------------------------------------
    Total:                   926

shb_l.a: [7]
    exit.o                    20
    ----------------------------------------------
    Total:                    20

    Gaps                      18        2        1
    Linker created                     44    2 048
--------------------------------------------------
    Grand Total:          51 818    6 910   69 984


*******************************************************************************
*** ENTRY LIST
***

Entry                      Address    Size  Type      Object
-----                      -------    ----  ----      ------
?main                   0x08010925          Code  Gb  cmain.o [6]
AAVMCommFlag            0x2001083c     0x1  Data  Gb  WL9F_Monitor_APP.o [2]
AAVMMode                0x0800a51f    0x10  Code  Gb  WL9F_Monitor_APP.o [2]
AAVM_Camera_Icon_Index  0x2000dbc4     0x1  Data  Gb  LCD_Control.o [2]
AAVM_CheckCnt           0x2001095c     0x1  Data  Gb  LCD_Control.o [2]
AAVM_CheckFlag          0x2000dbc5     0x1  Data  Gb  LCD_Control.o [2]
AAVM_Icon_Index         0x2000dbc3     0x1  Data  Gb  LCD_Control.o [2]
AAVM_Menu_Flag          0x2000dbc6     0x1  Data  Gb  LCD_Control.o [2]
AAVM_Mode               0x2000dbc2     0x1  Data  Gb  LCD_Control.o [2]
ACK_NACK_SendToExynos   0x0800b7f1    0x1e  Code  Gb  M25PXX.o [2]
ADC3ConvertedValue      0x2001094a     0x2  Data  Gb  Hardware_Version.o [2]
ADC_Cmd                 0x080102e3    0x4c  Code  Gb  stm32f4xx_adc.o [2]
ADC_CommonInit          0x080101cb   0x118  Code  Gb  stm32f4xx_adc.o [2]
ADC_Configuration       0x0800d83d    0x68  Code  Gb  Hardware_Version.o [2]
ADC_DeInit              0x08010049    0x1a  Code  Gb  stm32f4xx_adc.o [2]
ADC_GetConversionValue  0x080104a7    0x2c  Code  Gb  stm32f4xx_adc.o [2]
ADC_GetFlagStatus       0x080104e9    0x54  Code  Gb  stm32f4xx_adc.o [2]
ADC_IRQHandler          0x080109e9          Code  Wk  startup_stm32f4xx.o [2]
ADC_Init                0x08010063   0x168  Code  Gb  stm32f4xx_adc.o [2]
ADC_RegularChannelConfig
                        0x0801032f   0x148  Code  Gb  stm32f4xx_adc.o [2]
ADC_SoftwareStartConv   0x08010477    0x30  Code  Gb  stm32f4xx_adc.o [2]
AHBPrescTable           0x2000db8c    0x10  Data  Gb  system_stm32f4xx.o [2]
APBAHBPrescTable        0x2000dba0    0x10  Data  Lc  stm32f4xx_rcc.o [2]
Attachment_Lock_flag    0x20010927     0x1  Data  Gb  LAMP_Control.o [2]
Attachment_Unlock_flag  0x20010926     0x1  Data  Gb  LAMP_Control.o [2]
AuthResult              0x200108b8     0x1  Data  Gb  WL9F_Monitor_APP.o [2]
AutoRide_Control_flag   0x20010925     0x1  Data  Gb  LAMP_Control.o [2]
BusFault_Handler        0x0800e52b     0x2  Code  Gb  stm32f4xx_it.o [2]
Buz1                    0x2001095f     0x1  Data  Gb  stm32f4xx_it.o [2]
Buzzer_Init             0x0800bbcd    0x68  Code  Gb  Buzzer.o [2]
Buzzer_Off              0x0800bc47     0xa  Code  Gb  Buzzer.o [2]
Buzzer_On               0x0800bc35     0xa  Code  Gb  Buzzer.o [2]
Buzzer_SendCnt          0x200107d2     0x1  Data  Gb  Buzzer.o [2]
Buzzer_SendFlag         0x200107d3     0x1  Data  Gb  Buzzer.o [2]
Buzzer_UnLimitOff       0x0800bc51     0x8  Code  Gb  Buzzer.o [2]
Buzzer_UnLimitOn        0x0800bc3f     0x8  Code  Gb  Buzzer.o [2]
CAN1_RX0_IRQHandler     0x0800e5c9   0x134  Code  Gb  stm32f4xx_it.o [2]
CAN1_RX1_IRQHandler     0x080109f5          Code  Wk  startup_stm32f4xx.o [2]
CAN1_SCE_IRQHandler     0x080109f9          Code  Wk  startup_stm32f4xx.o [2]
CAN1_TX_IRQHandler      0x080109ed          Code  Wk  startup_stm32f4xx.o [2]
CAN2_RX0_IRQHandler     0x08010aa1          Code  Wk  startup_stm32f4xx.o [2]
CAN2_RX1_IRQHandler     0x08010aa5          Code  Wk  startup_stm32f4xx.o [2]
CAN2_SCE_IRQHandler     0x08010aa9          Code  Wk  startup_stm32f4xx.o [2]
CAN2_TX_IRQHandler      0x08010a9d          Code  Wk  startup_stm32f4xx.o [2]
CANUpdateFlag           0x200100eb     0x1  Data  Gb  stm32f4xx_it.o [2]
CANUpdateSA             0x200100ec     0x1  Data  Gb  stm32f4xx_it.o [2]
CAN_COMInit             0x0800d0d9    0xb4  Code  Gb  CAN_Control.o [2]
CAN_DeInit              0x0800c4c1    0x46  Code  Gb  stm32f4xx_can.o [2]
CAN_FilterInit          0x0800c6d1   0x11a  Code  Gb  stm32f4xx_can.o [2]
CAN_ITConfig            0x0800c9f5    0x94  Code  Gb  stm32f4xx_can.o [2]
CAN_Init                0x0800c507   0x1ca  Code  Gb  stm32f4xx_can.o [2]
CAN_Message_Ring_Buffer_Rx_Single
                        0x2000dbc8  0x10f4  Data  Gb  CAN_Control.o [2]
CAN_Message_Ring_Buffer_Tx_Single
                        0x2000ecbc   0xbf8  Data  Gb  CAN_Control.o [2]
CAN_RX                  0x0800d4d3    0xd4  Code  Gb  CAN_Control.o [2]
CAN_Receive             0x0800c943    0xb2  Code  Gb  stm32f4xx_can.o [2]
CAN_StructInit          0x0800c7eb    0x20  Code  Gb  stm32f4xx_can.o [2]
CAN_TX                  0x0800d437    0x9c  Code  Gb  CAN_Control.o [2]
CAN_TX_Key_Status       0x0800d6bd    0x76  Code  Gb  CAN_Control.o [2]
CAN_Transmit            0x0800c80b   0x138  Code  Gb  stm32f4xx_can.o [2]
CMD_ACK_SendToExynos    0x0800b80f    0x16  Code  Gb  M25PXX.o [2]
COM_RX_AF               0x0800a7d8     0x2  Data  Gb  stm324xg_eval.o [2]
COM_RX_PIN              0x0800a7c8     0x2  Data  Gb  stm324xg_eval.o [2]
COM_RX_PIN_SOURCE       0x0800a7d0     0x2  Data  Gb  stm324xg_eval.o [2]
COM_RX_PORT             0x2000dbb8     0x4  Data  Gb  stm324xg_eval.o [2]
COM_RX_PORT_CLK         0x0800a7c0     0x4  Data  Gb  stm324xg_eval.o [2]
COM_TX_AF               0x0800a7d4     0x2  Data  Gb  stm324xg_eval.o [2]
COM_TX_PIN              0x0800a7c4     0x2  Data  Gb  stm324xg_eval.o [2]
COM_TX_PIN_SOURCE       0x0800a7cc     0x2  Data  Gb  stm324xg_eval.o [2]
COM_TX_PORT             0x2000dbb4     0x4  Data  Gb  stm324xg_eval.o [2]
COM_TX_PORT_CLK         0x0800a7bc     0x4  Data  Gb  stm324xg_eval.o [2]
COM_USART               0x2000dbb0     0x4  Data  Gb  stm324xg_eval.o [2]
CPU_OK                  0x0800e4bb    0x1c  Code  Gb  stm32f4xx_it.o [2]
CRYP_IRQHandler         0x08010add          Code  Wk  startup_stm32f4xx.o [2]
CSTACK$$Base            0x20010968           --   Gb  - Linker created -
CSTACK$$Limit           0x20011168           --   Gb  - Linker created -
CameraCommFlag          0x2001083b     0x1  Data  Gb  WL9F_Monitor_APP.o [2]
CameraMode              0x0800a4ff    0x10  Code  Gb  WL9F_Monitor_APP.o [2]
Camera_CheckCnt         0x200108fb     0x1  Data  Gb  LCD_Control.o [2]
Camera_CheckFlag        0x2000dbc1     0x1  Data  Gb  LCD_Control.o [2]
Camera_IO_Init          0x0800e35f    0xe6  Code  Gb  System_Init.o [2]
Camera_Mode             0x2000dbc0     0x1  Data  Gb  LCD_Control.o [2]
CanRecvCnt              0x2001095d     0x1  Data  Gb  stm32f4xx_it.o [2]
Change_UART4_for_Download
                        0x2000c028     0x1  Data  Gb  M25PXX.o [2]
CheckAAVM_Input         0x0800a52f    0x10  Code  Gb  WL9F_Monitor_APP.o [2]
CheckCamera_Input       0x0800a50f    0x10  Code  Gb  WL9F_Monitor_APP.o [2]
CheckResponseAuthentication
                        0x0800a0b1    0x58  Code  Gb  WL9F_Monitor_APP.o [2]
CheckResponseMsgComm    0x0800a109    0xa8  Code  Gb  WL9F_Monitor_APP.o [2]
Check_Hardware_Revision
                        0x0800d8a5    0x46  Code  Gb  Hardware_Version.o [2]
ClearCheckCamera        0x080086a5    0x84  Code  Gb  TW2835_Control.o [2]
CommErrCnt              0x200100f4     0x2  Data  Gb  stm32f4xx_it.o [2]
CompareAsterisk         0x20010624     0x1  Data  Gb  CAN_Control.o [2]
Crc16Table              0x0800b914   0x200  Data  Gb  M25PXX.o [2]
DCMI_IRQHandler         0x08010ad9          Code  Wk  startup_stm32f4xx.o [2]
DMA1_Stream0_IRQHandler
                        0x080109cd          Code  Wk  startup_stm32f4xx.o [2]
DMA1_Stream1_IRQHandler
                        0x080109d1          Code  Wk  startup_stm32f4xx.o [2]
DMA1_Stream2_IRQHandler
                        0x080109d5          Code  Wk  startup_stm32f4xx.o [2]
DMA1_Stream3_IRQHandler
                        0x080109d9          Code  Wk  startup_stm32f4xx.o [2]
DMA1_Stream4_IRQHandler
                        0x080109dd          Code  Wk  startup_stm32f4xx.o [2]
DMA1_Stream5_IRQHandler
                        0x080109e1          Code  Wk  startup_stm32f4xx.o [2]
DMA1_Stream6_IRQHandler
                        0x080109e5          Code  Wk  startup_stm32f4xx.o [2]
DMA1_Stream7_IRQHandler
                        0x08010a5d          Code  Wk  startup_stm32f4xx.o [2]
DMA2_Stream0_IRQHandler
                        0x08010a81          Code  Wk  startup_stm32f4xx.o [2]
DMA2_Stream1_IRQHandler
                        0x08010a85          Code  Wk  startup_stm32f4xx.o [2]
DMA2_Stream2_IRQHandler
                        0x08010a89          Code  Wk  startup_stm32f4xx.o [2]
DMA2_Stream3_IRQHandler
                        0x08010a8d          Code  Wk  startup_stm32f4xx.o [2]
DMA2_Stream4_IRQHandler
                        0x08010a91          Code  Wk  startup_stm32f4xx.o [2]
DMA2_Stream5_IRQHandler
                        0x08010ab1          Code  Wk  startup_stm32f4xx.o [2]
DMA2_Stream6_IRQHandler
                        0x08010ab5          Code  Wk  startup_stm32f4xx.o [2]
DMA2_Stream7_IRQHandler
                        0x08010ab9          Code  Wk  startup_stm32f4xx.o [2]
DMA_ClearFlag           0x0800f649    0xb8  Code  Gb  stm32f4xx_dma.o [2]
DMA_Cmd                 0x0800f4cb    0xb6  Code  Gb  stm32f4xx_dma.o [2]
DMA_DeInit              0x0800f0bd   0x1ba  Code  Gb  stm32f4xx_dma.o [2]
DMA_GetCurrDataCounter  0x0800f581    0x74  Code  Gb  stm32f4xx_dma.o [2]
DMA_ITConfig            0x0800f705    0xca  Code  Gb  stm32f4xx_dma.o [2]
DMA_Init                0x0800f277   0x254  Code  Gb  stm32f4xx_dma.o [2]
DMA_UART_SendFrame      0x0800b373    0x3c  Code  Gb  UART_Control.o [2]
DebugMon_Handler        0x0800e531     0x2  Code  Gb  stm32f4xx_it.o [2]
DebugUART_Init          0x0800962f    0x28  Code  Gb  main.o [2]
DownloadUDFont          0x080074bd    0x7c  Code  Gb  TW8816_Control.o [2]
E2PROM_Save             0x20010834     0x1  Data  Gb  WL9F_Monitor_APP.o [2]
EEPROM_ByteRead         0x0800ae61    0x50  Code  Gb  FM31X4.o [2]
EEPROM_ByteWrite        0x0800ae05    0x5c  Code  Gb  FM31X4.o [2]
EEPROM_PortChange       0x0800adc7    0x3e  Code  Gb  FM31X4.o [2]
EEPROM_Read             0x0800af1b    0x7e  Code  Gb  FM31X4.o [2]
EEPROM_Write            0x0800aebf    0x5c  Code  Gb  FM31X4.o [2]
ESL_ACK_received        0x200108b6     0x1  Data  Gb  WL9F_Monitor_APP.o [2]
ESL_CTS_received        0x200108b5     0x1  Data  Gb  WL9F_Monitor_APP.o [2]
ESL_System              0x0800a345    0x42  Code  Gb  WL9F_Monitor_APP.o [2]
ETH_IRQHandler          0x08010a95          Code  Wk  startup_stm32f4xx.o [2]
ETH_WKUP_IRQHandler     0x08010a99          Code  Wk  startup_stm32f4xx.o [2]
EXTI0_IRQHandler        0x080109b9          Code  Wk  startup_stm32f4xx.o [2]
EXTI15_10_IRQHandler    0x08010a41          Code  Wk  startup_stm32f4xx.o [2]
EXTI1_IRQHandler        0x080109bd          Code  Wk  startup_stm32f4xx.o [2]
EXTI2_IRQHandler        0x080109c1          Code  Wk  startup_stm32f4xx.o [2]
EXTI3_IRQHandler        0x080109c5          Code  Wk  startup_stm32f4xx.o [2]
EXTI4_IRQHandler        0x080109c9          Code  Wk  startup_stm32f4xx.o [2]
EXTI9_5_IRQHandler      0x080109fd          Code  Wk  startup_stm32f4xx.o [2]
FLASH_IRQHandler        0x080109b1          Code  Wk  startup_stm32f4xx.o [2]
FM3164_Watchdog_Init    0x0800af99    0x6c  Code  Gb  FM31X4.o [2]
FPU_IRQHandler          0x08010ae5          Code  Wk  startup_stm32f4xx.o [2]
FSMC_IRQHandler         0x08010a61          Code  Wk  startup_stm32f4xx.o [2]
FatoryInit_Flag         0x200100ea     0x1  Data  Gb  stm32f4xx_it.o [2]
FeistelFun              0x0800cf45    0x3a  Code  Gb  endecoder.o [1]
File_Write_to_SFLAH     0x0800b835    0x72  Code  Gb  M25PXX.o [2]
Flag_ESL                0x200108b2     0x1  Data  Gb  WL9F_Monitor_APP.o [2]
Flag_SerialRxMsg        0x2001062c     0x4  Data  Gb  CAN_Control.o [2]
Flag_St_Update          0x2000c029     0x1  Data  Gb  M25PXX.o [2]
Flag_TxE2pRomData       0x2001095e     0x1  Data  Gb  stm32f4xx_it.o [2]
Flag_UartTxStart        0x20010830     0x1  Data  Gb  WL9F_Monitor_APP.o [2]
GPIO_Configuration      0x0800d9fd   0x456  Code  Gb  System_Init.o [2]
GPIO_Configuration_NotUsed
                        0x0800de53   0x436  Code  Gb  System_Init.o [2]
GPIO_Init               0x08007565   0x142  Code  Gb  stm32f4xx_gpio.o [2]
GPIO_PinAFConfig        0x080079d9    0xfc  Code  Gb  stm32f4xx_gpio.o [2]
GPIO_ReadInputData      0x08007769    0x5c  Code  Gb  stm32f4xx_gpio.o [2]
GPIO_ReadInputDataBit   0x080076a7    0xc2  Code  Gb  stm32f4xx_gpio.o [2]
GPIO_ReadOutputData     0x080077c5    0x5c  Code  Gb  stm32f4xx_gpio.o [2]
GPIO_ResetBits          0x08007879    0x58  Code  Gb  stm32f4xx_gpio.o [2]
GPIO_SetBits            0x08007821    0x58  Code  Gb  stm32f4xx_gpio.o [2]
GPIO_Write              0x0800798f    0x4a  Code  Gb  stm32f4xx_gpio.o [2]
GPIO_WriteBit           0x080078d1    0xbe  Code  Gb  stm32f4xx_gpio.o [2]
GetRandValue            0x08009f0b    0x26  Code  Gb  WL9F_Monitor_APP.o [2]
HASH_RNG_IRQHandler     0x08010ae1          Code  Wk  startup_stm32f4xx.o [2]
HardFault_Handler       0x0800e527     0x2  Code  Gb  stm32f4xx_it.o [2]
Hardware_Revision       0x20010948     0x1  Data  Gb  Hardware_Version.o [2]
Hardware_Version_Init   0x0800d8f5     0xc  Code  Gb  Hardware_Version.o [2]
I2C1_ER_IRQHandler      0x08010a21          Code  Wk  startup_stm32f4xx.o [2]
I2C1_EV_IRQHandler      0x08010a1d          Code  Wk  startup_stm32f4xx.o [2]
I2C2DeviceInitialize    0x08007d4d    0x22  Code  Gb  TW8832_Control.o [2]
I2C2DeviceInitialize_8816
                        0x0800733d    0x20  Code  Gb  TW8816_Control.o [2]
I2C2_ByteRead_8816      0x08007233   0x106  Code  Gb  TW8816_Control.o [2]
I2C2_ByteWrite          0x08007cbf    0x8e  Code  Gb  TW8832_Control.o [2]
I2C2_ByteWrite_8816     0x08007127    0x8e  Code  Gb  TW8816_Control.o [2]
I2C2_ER_IRQHandler      0x08010a29          Code  Wk  startup_stm32f4xx.o [2]
I2C2_EV_IRQHandler      0x08010a25          Code  Wk  startup_stm32f4xx.o [2]
I2C2_Read_8816          0x080071b5    0x7e  Code  Gb  TW8816_Control.o [2]
I2C2_Write              0x08007c3f    0x80  Code  Gb  TW8832_Control.o [2]
I2C2_Write_8816         0x080070a7    0x80  Code  Gb  TW8816_Control.o [2]
I2C3_ER_IRQHandler      0x08010ac5          Code  Wk  startup_stm32f4xx.o [2]
I2C3_EV_IRQHandler      0x08010ac1          Code  Wk  startup_stm32f4xx.o [2]
Iden                    0x200100e0     0x8  Data  Gb  stm32f4xx_it.o [2]
Identifier              0x20010610     0x8  Data  Gb  CAN_Control.o [2]
Illumination_Sig        0x200107dc     0x1  Data  Gb  LAMP_Control.o [2]
InStream_Read           0x080105c7    0x22  Code  Lc  lz77_init.o [6]
InitCVBSAll             0x2000d818   0x170  Data  Gb  TW8832_Control.o [2]
InitCVBSAll_8816        0x2000c434   0x404  Data  Gb  TW8816_Control.o [2]
InitE2PROM              0x08009aeb   0x1ca  Code  Gb  WL9F_Monitor_APP.o [2]
InitOSDCol              0x08009ab1     0x4  Code  Gb  TW2835_OSD.o [2]
InitPg2                 0x08007d89   0x142  Code  Gb  TW2835_Control.o [2]
Init_RTC                0x08009ab9    0x32  Code  Gb  WL9F_Monitor_APP.o [2]
Init_Smart_Key_valuable
                        0x08009cb5    0x32  Code  Gb  WL9F_Monitor_APP.o [2]
Input_Key_Value         0x2000db3d     0x1  Data  Gb  KeySwitch.o [2]
JumpAddress_Cluster_App
                        0x20010860     0x4  Data  Gb  WL9F_Monitor_APP.o [2]
JumpAddress_Cluster_Iap
                        0x20010868     0x4  Data  Gb  WL9F_Monitor_APP.o [2]
Jump_To_Application_Cluster_App
                        0x2001085c     0x4  Data  Gb  WL9F_Monitor_APP.o [2]
Jump_To_Application_Cluster_Iap
                        0x20010864     0x4  Data  Gb  WL9F_Monitor_APP.o [2]
KEYSWITCH_INPUT         0x0800bf1c     0xc  Data  Gb  KeySwitch.o [2]
KEYSWITCH_INPUTPORT     0x2000db4c    0x18  Data  Gb  KeySwitch.o [2]
KEYSWITCH_SCANPORT      0x2000db40     0xc  Data  Gb  KeySwitch.o [2]
KeySwitchScan           0x2000db3c     0x1  Data  Gb  KeySwitch.o [2]
KeySwitchSendCount      0x2000db70     0x4  Data  Gb  KeySwitch.o [2]
KeySwitch_Init          0x0800beaf    0x5c  Code  Gb  KeySwitch.o [2]
KeySwitch_Process       0x0800bd33   0x17c  Code  Gb  KeySwitch.o [2]
KeySwitch_SendToEXYNOS  0x0800bc69    0x3e  Code  Gb  KeySwitch.o [2]
KeySwitch_Value         0x20010954     0x4  Data  Gb  WL9F_Monitor_APP.o [2]
Key_Status              0x2000db3e     0x1  Data  Gb  KeySwitch.o [2]
LAMP_Control_Init       0x0800ccbb    0x30  Code  Gb  LAMP_Control.o [2]
LAMP_Update_Data        0x20010858     0x4  Data  Gb  WL9F_Monitor_APP.o [2]
LCDBL_Init              0x0800cd87    0x92  Code  Gb  LCD_Control.o [2]
LCDBL_ONOFF             0x0800cd13    0x14  Code  Gb  LCD_Control.o [2]
LCDBL_PWMLEVEL          0x0800cee4    0x14  Data  Gb  LCD_Control.o [2]
LCDBL_PWM_CONTROL       0x0800cd37    0x50  Code  Gb  LCD_Control.o [2]
LCDBL_PWM_LEVEL         0x0800cd27    0x10  Code  Gb  LCD_Control.o [2]
LCDOffCount             0x20010839     0x1  Data  Gb  WL9F_Monitor_APP.o [2]
LCD_Control_Init        0x0800ce9d    0x26  Code  Gb  LCD_Control.o [2]
LCD_Display_Change      0x0800ce19    0x48  Code  Gb  LCD_Control.o [2]
LCD_POWER_ONOFF         0x0800cd09     0xa  Code  Gb  LCD_Control.o [2]
LED_POWER_ONOFF         0x0800ccfd     0xc  Code  Gb  LCD_Control.o [2]
Lamp_Update_State       0x0800cba1   0x11a  Code  Gb  LAMP_Control.o [2]
Lamp_Update_System      0x0800cb0d    0x94  Code  Gb  LAMP_Control.o [2]
Lamp_Value              0x200108fa     0x1  Data  Gb  LAMP_Control.o [2]
Lamp_name               0x200108f9     0x1  Data  Gb  LAMP_Control.o [2]
Led_BL_TEMP             0x20010808    0x28  Data  Gb  LAMP_Control.o [2]
Led_SIG_TEMP            0x200107e0    0x28  Data  Gb  LAMP_Control.o [2]
LoadTestToEEPROM        0x08009d61     0x6  Code  Gb  WL9F_Monitor_APP.o [2]
M25P32_Init             0x0800b665    0x2a  Code  Gb  M25PXX.o [2]
MakeCrc16               0x0800b63f    0x26  Code  Gb  M25PXX.o [2]
Make_Key_Status         0x0800bca7    0x52  Code  Gb  KeySwitch.o [2]
MemManage_Handler       0x0800e529     0x2  Code  Gb  stm32f4xx_it.o [2]
MoniInfoData            0x2001088c    0x18  Data  Gb  WL9F_Monitor_APP.o [2]
MonitorStatus_CAN_TX    0x0800d5a7    0x48  Code  Gb  CAN_Control.o [2]
NMI_Handler             0x0800e525     0x2  Code  Gb  stm32f4xx_it.o [2]
NOP                     0x0800adc5     0x2  Code  Gb  FM31X4.o [2]
NVIC_Init               0x0800ef7d    0x8c  Code  Gb  misc.o [2]
NVIC_SetVectorTable     0x0800f009    0x38  Code  Gb  misc.o [2]
OSUpdateCount           0x20010854     0x2  Data  Gb  WL9F_Monitor_APP.o [2]
OTG_FS_IRQHandler       0x08010aad          Code  Wk  startup_stm32f4xx.o [2]
OTG_FS_WKUP_IRQHandler  0x08010a49          Code  Wk  startup_stm32f4xx.o [2]
OTG_HS_EP1_IN_IRQHandler
                        0x08010acd          Code  Wk  startup_stm32f4xx.o [2]
OTG_HS_EP1_OUT_IRQHandler
                        0x08010ac9          Code  Wk  startup_stm32f4xx.o [2]
OTG_HS_IRQHandler       0x08010ad5          Code  Wk  startup_stm32f4xx.o [2]
OTG_HS_WKUP_IRQHandler  0x08010ad1          Code  Wk  startup_stm32f4xx.o [2]
Old_LAMP_Update_Data    0x20010958     0x4  Data  Gb  WL9F_Monitor_APP.o [2]
OutStream_Write         0x080105e9    0x40  Code  Lc  lz77_init.o [6]
PCA2119_BIT_READ        0x0800aca5    0x3e  Code  Gb  RTC.o [2]
PCA2119_BIT_WRITE       0x0800ac5f    0x46  Code  Gb  RTC.o [2]
PCA2119_BYTE_READ       0x0800ad19    0x52  Code  Gb  RTC.o [2]
PCA2119_BYTE_WRITE      0x0800aced    0x2c  Code  Gb  RTC.o [2]
PCA2119_START           0x0800abd3    0x52  Code  Gb  RTC.o [2]
PCA2119_STOP            0x0800ac25    0x3a  Code  Gb  RTC.o [2]
PVD_IRQHandler          0x080109a5          Code  Wk  startup_stm32f4xx.o [2]
Password_Certification_Result
                        0x200108b7     0x1  Data  Gb  WL9F_Monitor_APP.o [2]
PendSV_Handler          0x0800e533     0x2  Code  Gb  stm32f4xx_it.o [2]
Port_Change             0x0800866b    0x3a  Code  Gb  TW2835_Control.o [2]
PwrOffCnt               0x20010835     0x1  Data  Gb  WL9F_Monitor_APP.o [2]
RCC_AHB1PeriphClockCmd  0x0800ed3d    0x44  Code  Gb  stm32f4xx_rcc.o [2]
RCC_AHB3PeriphClockCmd  0x0800ed81    0x42  Code  Gb  stm32f4xx_rcc.o [2]
RCC_APB1PeriphClockCmd  0x0800edc3    0x44  Code  Gb  stm32f4xx_rcc.o [2]
RCC_APB1PeriphResetCmd  0x0800ee4b    0x44  Code  Gb  stm32f4xx_rcc.o [2]
RCC_APB2PeriphClockCmd  0x0800ee07    0x44  Code  Gb  stm32f4xx_rcc.o [2]
RCC_APB2PeriphResetCmd  0x0800ee8f    0x42  Code  Gb  stm32f4xx_rcc.o [2]
RCC_ClockSecuritySystemCmd
                        0x0800ec91    0x1e  Code  Gb  stm32f4xx_rcc.o [2]
RCC_Configuration       0x0800d901    0xfc  Code  Gb  System_Init.o [2]
RCC_GetClocksFreq       0x0800ecaf    0x8e  Code  Gb  stm32f4xx_rcc.o [2]
RCC_IRQHandler          0x080109b5          Code  Wk  startup_stm32f4xx.o [2]
READ_FM31xx_RTC_Companion
                        0x0800b089    0x7a  Code  Gb  FM31X4.o [2]
READ_RTC                0x0800ab5d    0x76  Code  Gb  RTC.o [2]
READ_RTC_Date           0x0800a92b    0x1c  Code  Gb  RTC.o [2]
READ_RTC_Day            0x0800a97d    0x1e  Code  Gb  RTC.o [2]
READ_RTC_Hour           0x0800a9d9    0x18  Code  Gb  RTC.o [2]
READ_RTC_Minute         0x0800aa43    0x1e  Code  Gb  RTC.o [2]
READ_RTC_Month          0x0800a8c5    0x20  Code  Gb  RTC.o [2]
READ_RTC_Second         0x0800aa9f    0x1e  Code  Gb  RTC.o [2]
READ_RTC_Year           0x0800a851    0x1e  Code  Gb  RTC.o [2]
ROMFONTDATA             0x20000000  0x71e8  Data  Gb  TW8816_Control.o [2]
RTC_Alarm_IRQHandler    0x08010a45          Code  Wk  startup_stm32f4xx.o [2]
RTC_PortChange          0x0800a7dd    0x34  Code  Gb  RTC.o [2]
RTC_WKUP_IRQHandler     0x080109ad          Code  Wk  startup_stm32f4xx.o [2]
ReadAsicByte            0x08008449   0x120  Code  Gb  TW2835_Control.o [2]
ReadAsicOSDMemWr        0x08008569   0x102  Code  Gb  TW2835_Control.o [2]
Read_File_From_SFLAH    0x0800b8a7    0x5e  Code  Gb  M25PXX.o [2]
Rear_wiper_Key_Status   0x2000db74     0x4  Data  Gb  KeySwitch.o [2]
RecvMachInfo            0x20010622     0x1  Data  Gb  CAN_Control.o [2]
Region$$Table$$Base     0x080108dc           --   Gb  - Linker created -
Region$$Table$$Limit    0x08010908           --   Gb  - Linker created -
Register_Table_Page0    0x2000d618   0x100  Data  Gb  TW2835_Control.o [2]
Register_Table_Page1    0x2000d718   0x100  Data  Gb  TW2835_Control.o [2]
RequestFirstAuthentication
                        0x08009f31    0x8a  Code  Gb  WL9F_Monitor_APP.o [2]
RequestSMKElimination   0x0800a03f    0x28  Code  Gb  WL9F_Monitor_APP.o [2]
RequestSMKRegistration  0x0800a015    0x2a  Code  Gb  WL9F_Monitor_APP.o [2]
RequestSecondAuthentication
                        0x08009fbb    0x5a  Code  Gb  WL9F_Monitor_APP.o [2]
Reset_Handler           0x08010961          Code  Wk  startup_stm32f4xx.o [2]
Ride_Control_flag       0x20010924     0x1  Data  Gb  LAMP_Control.o [2]
RxMsg                   0x200100cc    0x14  Data  Gb  stm32f4xx_it.o [2]
SDIO_IRQHandler         0x08010a65          Code  Wk  startup_stm32f4xx.o [2]
SMKSuccess              0x200108b9     0x1  Data  Gb  WL9F_Monitor_APP.o [2]
SMK_Msg_Send            0x200108ba     0x1  Data  Gb  WL9F_Monitor_APP.o [2]
SMK_SendToExynos        0x0800bcf9    0x2c  Code  Gb  KeySwitch.o [2]
SMK_Tag_Count           0x200108bb     0x1  Data  Gb  WL9F_Monitor_APP.o [2]
SPI1_IRQHandler         0x08010a2d          Code  Wk  startup_stm32f4xx.o [2]
SPI2_IRQHandler         0x08010a31          Code  Wk  startup_stm32f4xx.o [2]
SPI3_IRQHandler         0x08010a6d          Code  Wk  startup_stm32f4xx.o [2]
SPI_FLASH_BufferRead    0x0800b571    0x4a  Code  Gb  M25PXX.o [2]
SPI_FLASH_BulkErase     0x0800b481    0x40  Code  Gb  M25PXX.o [2]
SPI_FLASH_PageWrite     0x0800b4c1    0xb0  Code  Gb  M25PXX.o [2]
SPI_FLASH_SectorErase   0x0800b429    0x58  Code  Gb  M25PXX.o [2]
SPI_FLASH_WaitForWriteEnd
                        0x0800b613    0x1e  Code  Gb  M25PXX.o [2]
SPI_Transfer            0x0800b5bb    0x58  Code  Gb  M25PXX.o [2]
STM32_Update            0x0800b68f   0x162  Code  Gb  M25PXX.o [2]
STM_EVAL_COMInit        0x0800a6f9    0xbe  Code  Gb  stm324xg_eval.o [2]
ST_Update               0x20010837     0x1  Data  Gb  WL9F_Monitor_APP.o [2]
SVC_Handler             0x0800e52f     0x2  Code  Gb  stm32f4xx_it.o [2]
SaveE2PROM1             0x200108fc     0x4  Data  Gb  WL9F_Monitor_APP.o [2]
SaveE2PROM2             0x20010900     0x4  Data  Gb  WL9F_Monitor_APP.o [2]
SaveE2PROM3             0x20010904     0x4  Data  Gb  WL9F_Monitor_APP.o [2]
SaveE2PROMoniInfo       0x20010908     0x4  Data  Gb  WL9F_Monitor_APP.o [2]
SaveSMKUseToEEPROM      0x08009d39     0x8  Code  Gb  WL9F_Monitor_APP.o [2]
SaveSMKUseToFlash       0x08009d41    0x18  Code  Gb  WL9F_Monitor_APP.o [2]
SaveTestToEEPROM        0x08009d59     0x8  Code  Gb  WL9F_Monitor_APP.o [2]
Seed_Request_CAN_TX     0x0800d5f5    0x50  Code  Gb  CAN_Control.o [2]
Seed_received           0x200108b4     0x1  Data  Gb  WL9F_Monitor_APP.o [2]
Seed_request            0x200108b3     0x1  Data  Gb  WL9F_Monitor_APP.o [2]
SendEEPROMDataCnt       0x200108e4     0x1  Data  Gb  stm32f4xx_it.o [2]
SendMultiPacketData_ESL
                        0x0800d733    0xaa  Code  Gb  CAN_Control.o [2]
SendMultiPacketRTS_ESL  0x0800d645    0x78  Code  Gb  CAN_Control.o [2]
SendRTCnt               0x20010832     0x1  Data  Gb  WL9F_Monitor_APP.o [2]
SendSMKAuthResult       0x08009e97    0x12  Code  Gb  WL9F_Monitor_APP.o [2]
SendSMKMsgResult        0x08009eaf    0x1c  Code  Gb  WL9F_Monitor_APP.o [2]
SendTime_E2PROM         0x20010831     0x1  Data  Gb  WL9F_Monitor_APP.o [2]
SendTo_E2PROM           0x0800e4d7    0x3c  Code  Gb  stm32f4xx_it.o [2]
SerialMsgRTC            0x2001090c    0x10  Data  Gb  WL9F_Monitor_APP.o [2]
SerialTXIndex           0x20010940     0x8  Data  Gb  stm32f4xx_it.o [2]
Serial_BaudRate         0x0800b408    0x14  Data  Gb  UART_Control.o [2]
Serial_IRQ_Channel      0x0800b41c     0xc  Data  Gb  UART_Control.o [2]
Serial_USART            0x2000db78    0x14  Data  Gb  UART_Control.o [2]
SetBlankIcon            0x080065d9   0xa90  Code  Gb  TW8816_OSD.o [2]
SetChange2DBirdView     0x08005ba5   0x2c6  Code  Gb  TW8816_OSD.o [2]
SetChange3DBirdView     0x08005619   0x2c6  Code  Gb  TW8816_OSD.o [2]
SetChange3DLeftView     0x08005e6b   0x2c6  Code  Gb  TW8816_OSD.o [2]
SetChange3DRearView     0x080058df   0x2c6  Code  Gb  TW8816_OSD.o [2]
SetChange3DRightView    0x08006131   0x2c2  Code  Gb  TW8816_OSD.o [2]
SetChange4ChannelView   0x0800534f   0x2c2  Code  Gb  TW8816_OSD.o [2]
SetChangeBackView       0x08004aff   0x2c4  Code  Gb  TW8816_OSD.o [2]
SetChangeFrontView      0x0800483b   0x2c4  Code  Gb  TW8816_OSD.o [2]
SetChangeLeftView       0x08004dc3   0x2c6  Code  Gb  TW8816_OSD.o [2]
SetChangeRightView      0x08005089   0x2c6  Code  Gb  TW8816_OSD.o [2]
SetChangeSpeakerIcon    0x080063fd   0x1d2  Code  Gb  TW8816_OSD.o [2]
SetChangeXIcon          0x08004707   0x134  Code  Gb  TW8816_OSD.o [2]
SetDisplayCH1           0x080041ab    0x76  Code  Gb  TW8816_OSD.o [2]
SetDisplayCH2           0x08004221    0x76  Code  Gb  TW8816_OSD.o [2]
SetDisplayCH3           0x08004297    0x76  Code  Gb  TW8816_OSD.o [2]
SetDisplayCH4           0x0800430d    0x76  Code  Gb  TW8816_OSD.o [2]
SetDisplayCHBlank       0x08004383    0x6e  Code  Gb  TW8816_OSD.o [2]
SetDisplayIcon          0x080046cd    0x3a  Code  Gb  TW8816_OSD.o [2]
SetDisplayNosignal      0x080043f1   0x166  Code  Gb  TW8816_OSD.o [2]
SetDisplayNosignalBlank
                        0x08004557   0x15c  Code  Gb  TW8816_OSD.o [2]
SetFontOSDWindow        0x08004189    0x22  Code  Gb  TW8816_OSD.o [2]
SetOSDCol               0x08009a69    0x48  Code  Gb  TW2835_OSD.o [2]
SetTagCmd               0x08009eef    0x1c  Code  Gb  WL9F_Monitor_APP.o [2]
SetTagLevel             0x08009ecb    0x24  Code  Gb  WL9F_Monitor_APP.o [2]
SmartKeyAuthentication  0x0800a1b1   0x18c  Code  Gb  WL9F_Monitor_APP.o [2]
SmartKeyUse             0x2001083a     0x1  Data  Gb  WL9F_Monitor_APP.o [2]
Stm32_Update_CMD        0x200100e9     0x1  Data  Gb  stm32f4xx_it.o [2]
SysTick_Handler         0x0800e535    0x94  Code  Gb  stm32f4xx_it.o [2]
SystemCoreClock         0x2000db9c     0x4  Data  Gb  system_stm32f4xx.o [2]
SystemInit              0x08010785    0xcc  Code  Gb  system_stm32f4xx.o [2]
SystemReset             0x20010833     0x1  Data  Gb  WL9F_Monitor_APP.o [2]
System_CheckPowerIG     0x08009d67   0x130  Code  Gb  WL9F_Monitor_APP.o [2]
System_Configuration    0x0800e289    0x1a  Code  Gb  System_Init.o [2]
System_Initialize       0x0800e2a3    0x70  Code  Gb  System_Init.o [2]
System_Variable_Init    0x0800e313    0x4c  Code  Gb  System_Init.o [2]
TAMP_STAMP_IRQHandler   0x080109a9          Code  Wk  startup_stm32f4xx.o [2]
TIM1_BRK_TIM9_IRQHandler
                        0x08010a01          Code  Wk  startup_stm32f4xx.o [2]
TIM1_CC_IRQHandler      0x08010a0d          Code  Wk  startup_stm32f4xx.o [2]
TIM1_TRG_COM_TIM11_IRQHandler
                        0x08010a09          Code  Wk  startup_stm32f4xx.o [2]
TIM1_UP_TIM10_IRQHandler
                        0x08010a05          Code  Wk  startup_stm32f4xx.o [2]
TIM2_IRQHandler         0x08010a11          Code  Wk  startup_stm32f4xx.o [2]
TIM3_IRQHandler         0x08010a15          Code  Wk  startup_stm32f4xx.o [2]
TIM4_IRQHandler         0x0800e6fd    0x56  Code  Gb  stm32f4xx_it.o [2]
TIM5_IRQHandler         0x0800e753    0x14  Code  Gb  stm32f4xx_it.o [2]
TIM6_DAC_IRQHandler     0x08010a79          Code  Wk  startup_stm32f4xx.o [2]
TIM7_IRQHandler         0x08010a7d          Code  Wk  startup_stm32f4xx.o [2]
TIM8_BRK_TIM12_IRQHandler
                        0x08010a4d          Code  Wk  startup_stm32f4xx.o [2]
TIM8_CC_IRQHandler      0x08010a59          Code  Wk  startup_stm32f4xx.o [2]
TIM8_TRG_COM_TIM14_IRQHandler
                        0x08010a55          Code  Wk  startup_stm32f4xx.o [2]
TIM8_UP_TIM13_IRQHandler
                        0x08010a51          Code  Wk  startup_stm32f4xx.o [2]
TIM_ClearITPendingBit   0x0800fe99    0x7e  Code  Gb  stm32f4xx_tim.o [2]
TIM_Cmd                 0x0800fb0d    0xa6  Code  Gb  stm32f4xx_tim.o [2]
TIM_CtrlPWMOutputs      0x0800fd81    0x42  Code  Gb  stm32f4xx_tim.o [2]
TIM_ITConfig            0x0800fdc9    0xa2  Code  Gb  stm32f4xx_tim.o [2]
TIM_OC1Init             0x0800fbb9   0x18a  Code  Gb  stm32f4xx_tim.o [2]
TIM_TimeBaseInit        0x0800f9ad   0x12a  Code  Gb  stm32f4xx_tim.o [2]
TW2835_CameraMode       0x080088dd   0xcfe  Code  Gb  TW2835_Control.o [2]
TW2835_CheckCamera_Input
                        0x08008729   0x1a4  Code  Gb  TW2835_Control.o [2]
TW2835_Control_Init     0x080095db    0x30  Code  Gb  TW2835_Control.o [2]
TW8816_AAVMMode         0x08007465    0x48  Code  Gb  TW8816_Control.o [2]
TW8816_CameraMode       0x0800737b    0xc6  Code  Gb  TW8816_Control.o [2]
TW8816_CheckAAVM_Input  0x08007441    0x1c  Code  Gb  TW8816_Control.o [2]
TW8816_CheckCamera_Input
                        0x0800735d    0x1e  Code  Gb  TW8816_Control.o [2]
TW8816_PortChange       0x08007069    0x3e  Code  Gb  TW8816_Control.o [2]
TW8832_Control_Init     0x08007d77     0x2  Code  Gb  TW8832_Control.o [2]
TW8832_PortChange       0x08007c01    0x3e  Code  Gb  TW8832_Control.o [2]
Temp                    0x2000d98a     0x1  Data  Gb  TW2835_Control.o [2]
Temp_Cnt                0x2000db6c     0x4  Data  Gb  KeySwitch.o [2]
Temp_Value1             0x2000db64     0x4  Data  Gb  KeySwitch.o [2]
Temp_Value3             0x2000db68     0x4  Data  Gb  KeySwitch.o [2]
TimeDelay               0x08007b73     0x2  Code  Gb  TimeDelay.o [2]
TimeDelay_Decrement     0x08007b65     0xe  Code  Gb  TimeDelay.o [2]
TimeDelay_msec          0x08007bb3    0x2c  Code  Gb  TimeDelay.o [2]
TimeDelay_usec          0x08007b8d    0x26  Code  Gb  TimeDelay.o [2]
TimingDelay             0x2001094c     0x4  Data  Lc  TimeDelay.o [2]
TotMsgSize              0x200108e6     0x2  Data  Gb  stm32f4xx_it.o [2]
TotPacketNum            0x200100f2     0x2  Data  Gb  stm32f4xx_it.o [2]
TotalRequestCnt         0x20010623     0x1  Data  Gb  CAN_Control.o [2]
UART4_IRQHandler        0x0800e7c5    0x3c  Code  Gb  stm32f4xx_it.o [2]
UART4_Receive_CMD       0x0800e801   0x312  Code  Gb  stm32f4xx_it.o [2]
UART4_Receive_File      0x0800eb13    0x72  Code  Gb  stm32f4xx_it.o [2]
UART4_transmit_CMD      0x0800eb85    0x6e  Code  Gb  stm32f4xx_it.o [2]
UART5_IRQHandler        0x08010a75          Code  Wk  startup_stm32f4xx.o [2]
USART1_IRQHandler       0x08010a35          Code  Wk  startup_stm32f4xx.o [2]
USART2_IRQHandler       0x0800e767    0x5e  Code  Gb  stm32f4xx_it.o [2]
USART3_IRQHandler       0x08010a3d          Code  Wk  startup_stm32f4xx.o [2]
USART6_IRQHandler       0x08010abd          Code  Wk  startup_stm32f4xx.o [2]
USART_COMInit           0x0800b22d    0x7a  Code  Gb  UART_Control.o [2]
USART_COMInit_DMA       0x0800b2a7    0xcc  Code  Gb  UART_Control.o [2]
USART_Cmd               0x0800c0b7    0x68  Code  Gb  stm32f4xx_usart.o [2]
USART_DMACmd            0x0800c1dd    0x7a  Code  Gb  stm32f4xx_usart.o [2]
USART_GetITStatus       0x0800c359    0xe2  Code  Gb  stm32f4xx_usart.o [2]
USART_ITConfig          0x0800c261    0xf8  Code  Gb  stm32f4xx_usart.o [2]
USART_Init              0x0800bf29   0x18e  Code  Gb  stm32f4xx_usart.o [2]
USART_ReceiveData       0x0800c17b    0x48  Code  Gb  stm32f4xx_usart.o [2]
USART_SendData          0x0800c11f    0x5c  Code  Gb  stm32f4xx_usart.o [2]
USARTx_EXYNOS           0x0800b3af    0x3a  Code  Gb  UART_Control.o [2]
Uart2_RxMsg_AS_Phone_Data
                        0x20010648     0x8  Data  Gb  CAN_Control.o [2]
Uart2_RxMsg_Multi_145   0x20010748    0x18  Data  Gb  CAN_Control.o [2]
Uart2_RxMsg_Multi_161   0x20010688    0x10  Data  Gb  CAN_Control.o [2]
Uart2_RxMsg_Multi_23    0x200106e8    0x10  Data  Gb  CAN_Control.o [2]
Uart2_RxMsg_Multi_69    0x20010668    0x18  Data  Gb  CAN_Control.o [2]
Uart2_RxMsg_Save_Data1  0x20010638     0x8  Data  Gb  CAN_Control.o [2]
Uart2_RxMsg_Save_Data2  0x20010640     0x8  Data  Gb  CAN_Control.o [2]
Uart2_RxMsg_Single_101  0x20010708     0x8  Data  Gb  CAN_Control.o [2]
Uart2_RxMsg_Single_104  0x20010710     0x8  Data  Gb  CAN_Control.o [2]
Uart2_RxMsg_Single_105  0x20010718     0x8  Data  Gb  CAN_Control.o [2]
Uart2_RxMsg_Single_109  0x20010720     0x8  Data  Gb  CAN_Control.o [2]
Uart2_RxMsg_Single_11   0x200106d0     0x8  Data  Gb  CAN_Control.o [2]
Uart2_RxMsg_Single_12   0x200106d8     0x8  Data  Gb  CAN_Control.o [2]
Uart2_RxMsg_Single_121  0x20010728     0x8  Data  Gb  CAN_Control.o [2]
Uart2_RxMsg_Single_123  0x20010730     0x8  Data  Gb  CAN_Control.o [2]
Uart2_RxMsg_Single_160  0x20010680     0x8  Data  Gb  CAN_Control.o [2]
Uart2_RxMsg_Single_162  0x20010618     0x8  Data  Gb  CAN_Control.o [2]
Uart2_RxMsg_Single_163  0x20010698     0x8  Data  Gb  CAN_Control.o [2]
Uart2_RxMsg_Single_174  0x200106a0     0x8  Data  Gb  CAN_Control.o [2]
Uart2_RxMsg_Single_201  0x20010738     0x8  Data  Gb  CAN_Control.o [2]
Uart2_RxMsg_Single_203  0x20010740     0x8  Data  Gb  CAN_Control.o [2]
Uart2_RxMsg_Single_21   0x200106e0     0x8  Data  Gb  CAN_Control.o [2]
Uart2_RxMsg_Single_239  0x200106c0     0x8  Data  Gb  CAN_Control.o [2]
Uart2_RxMsg_Single_239_121
                        0x200106c8     0x8  Data  Gb  CAN_Control.o [2]
Uart2_RxMsg_Single_247  0x20010760     0x8  Data  Gb  CAN_Control.o [2]
Uart2_RxMsg_Single_251  0x200106a8     0x8  Data  Gb  CAN_Control.o [2]
Uart2_RxMsg_Single_252  0x200106b0     0x8  Data  Gb  CAN_Control.o [2]
Uart2_RxMsg_Single_253  0x200106b8     0x8  Data  Gb  CAN_Control.o [2]
Uart2_RxMsg_Single_46   0x20010658     0x8  Data  Gb  CAN_Control.o [2]
Uart2_RxMsg_Single_47   0x2000f8b4     0x8  Data  Gb  CAN_Control.o [2]
Uart2_RxMsg_Single_61   0x200106f8     0x8  Data  Gb  CAN_Control.o [2]
Uart2_RxMsg_Single_62   0x20010700     0x8  Data  Gb  CAN_Control.o [2]
Uart2_RxMsg_Single_69   0x20010660     0x8  Data  Gb  CAN_Control.o [2]
Uart2_RxMsg_Smk_Reg_Eli
                        0x20010650     0x8  Data  Gb  CAN_Control.o [2]
Uart2_SerialRxCnt       0x200108f8     0x1  Data  Gb  stm32f4xx_it.o [2]
Uart2_SerialRxMsg       0x200108e8    0x10  Data  Gb  stm32f4xx_it.o [2]
Uart2_SerialTxCnt       0x200100e8     0x1  Data  Gb  stm32f4xx_it.o [2]
Uart2_SerialTxMsg       0x200108d0    0x14  Data  Gb  stm32f4xx_it.o [2]
UpdateMode              0x20010838     0x1  Data  Gb  WL9F_Monitor_APP.o [2]
UsageFault_Handler      0x0800e52d     0x2  Code  Gb  stm32f4xx_it.o [2]
WL9FM_100mSecOperationFunc
                        0x0800a391    0xe2  Code  Gb  WL9F_Monitor_APP.o [2]
WL9FM_1SecOperationFunc
                        0x0800a473    0x8a  Code  Gb  WL9F_Monitor_APP.o [2]
WL9FM_BUZZER            0x20010930     0x8  Data  Gb  WL9F_Monitor_APP.o [2]
WL9FM_CAMERA_nRESET     0x0800bb87    0x26  Code  Gb  GPIO_Control.o [2]
WL9FM_EXYNOS_PMIC_PWROFF
                        0x0800bb41    0x36  Code  Gb  GPIO_Control.o [2]
WL9FM_EXYNOS_PMIC_PWRON
                        0x0800bb1d    0x24  Code  Gb  GPIO_Control.o [2]
WL9FM_EXYNOS_POWER_ONOFF
                        0x0800bb15     0x8  Code  Gb  GPIO_Control.o [2]
WL9FM_GetPowerIG        0x0800bbb7     0x8  Code  Gb  GPIO_Control.o [2]
WL9FM_LCDBL             0x20010950     0x4  Data  Gb  WL9F_Monitor_APP.o [2]
WL9FM_Monitor_APP       0x0800a5f5    0xac  Code  Gb  WL9F_Monitor_APP.o [2]
WL9FM_PowerIG           0x0800bbad     0xa  Code  Gb  GPIO_Control.o [2]
WL9FM_RTC               0x20010928     0x8  Data  Gb  WL9F_Monitor_APP.o [2]
WL9FM_System_Init_Start
                        0x0800a53f    0xae  Code  Gb  WL9F_Monitor_APP.o [2]
WL9FM_TIME              0x20010840    0x14  Data  Gb  WL9F_Monitor_APP.o [2]
WL9FM_USART_DATA        0x200103fc   0x214  Data  Gb  WL9F_Monitor_APP.o [2]
WL9FM_USART_FILE_DATA   0x2000fcc4   0x408  Data  Gb  WL9F_Monitor_APP.o [2]
WL9FM_USART_INDEX       0x20010938     0x8  Data  Gb  WL9F_Monitor_APP.o [2]
WL9FM_USART_RX_FILE_DATA
                        0x2000f8bc   0x408  Data  Gb  WL9F_Monitor_APP.o [2]
WL9F_CAMERA_Init        0x08007539    0x1c  Code  Gb  TW8816_Control.o [2]
WL9F_CAN_Buffer_Init    0x0800e491    0x2a  Code  Gb  stm32f4xx_it.o [2]
WL9F_CAN_Variables_Init
                        0x0800d18d   0x208  Code  Gb  CAN_Control.o [2]
WRITE_FM31xx_RTC_Companion
                        0x0800b00d    0x50  Code  Gb  FM31X4.o [2]
WRITE_RTC               0x0800aabd    0xa0  Code  Gb  RTC.o [2]
WRITE_RTC_Date          0x0800a8e5    0x46  Code  Gb  RTC.o [2]
WRITE_RTC_Day           0x0800a947    0x36  Code  Gb  RTC.o [2]
WRITE_RTC_Hour          0x0800a99b    0x3e  Code  Gb  RTC.o [2]
WRITE_RTC_Minute        0x0800aa05    0x3e  Code  Gb  RTC.o [2]
WRITE_RTC_Month         0x0800a86f    0x46  Code  Gb  RTC.o [2]
WRITE_RTC_Second        0x0800aa61    0x3e  Code  Gb  RTC.o [2]
WRITE_RTC_Year          0x0800a811    0x40  Code  Gb  RTC.o [2]
WWDG_IRQHandler         0x080109a1          Code  Wk  startup_stm32f4xx.o [2]
WriteAsicByte           0x080081b5   0x142  Code  Gb  TW2835_Control.o [2]
WriteAsicByteOSD        0x08007ecb   0x114  Code  Gb  TW2835_Control.o [2]
WriteAsicTable          0x080082f7   0x146  Code  Gb  TW2835_Control.o [2]
WriteAsicTableOSD       0x08007fdf   0x1d6  Code  Gb  TW2835_Control.o [2]
WriteOSDBmpX            0x08009659     0x2  Code  Gb  TW2835_OSD.o [2]
WriteOSDClrX            0x0800987d    0xfe  Code  Gb  TW2835_OSD.o [2]
WriteOSDClrY            0x0800997b    0xee  Code  Gb  TW2835_OSD.o [2]
WriteTW8816             0x08007339     0x4  Code  Gb  TW8816_Control.o [2]
Write_CAN_Single        0x0800d395    0x40  Code  Gb  CAN_Control.o [2]
Write_UART_Single       0x0800d3d5    0x62  Code  Gb  CAN_Control.o [2]
_Rand_idx               0x2000da68     0x4  Data  Lc  rand.o [4]
_Rand_rv                0x2000da6c    0x80  Data  Lc  rand.o [4]
_Randinit               0x2000da60     0x1  Data  Gb  rand.o [4]
_Randseed               0x2000da64     0x4  Data  Gb  rand.o [4]
__aeabi_memclr          0x080105c1          Code  Gb  ABImemclr.o [6]
__aeabi_memclr4         0x0800ffc5          Code  Gb  ABImemclr4.o [6]
__aeabi_memcpy          0x0800f895          Code  Gb  ABImemcpy.o [6]
__aeabi_memcpy4         0x0800f8b5          Code  Gb  ABImemcpy.o [6]
__aeabi_memcpy8         0x0800f8b5          Code  Gb  ABImemcpy.o [6]
__aeabi_memset          0x0800ffe1          Code  Gb  ABImemset.o [6]
__aeabi_memset4         0x0800f90d          Code  Gb  ABImemset48.o [6]
__aeabi_memset8         0x0800f90d          Code  Gb  ABImemset48.o [6]
__cmain                 0x08010925          Code  Gb  cmain.o [6]
__exit                  0x08010771    0x14  Code  Gb  exit.o [7]
__iar_Memset            0x0800ffe1          Code  Gb  ABImemset.o [6]
__iar_Memset4_word      0x0800f915          Code  Gb  ABImemset48.o [6]
__iar_Memset8_word      0x0800f915          Code  Gb  ABImemset48.o [6]
__iar_Memset_word       0x0800ffe9          Code  Gb  ABImemset.o [6]
__iar_data_init3        0x080108b5    0x28  Code  Gb  data_init.o [6]
__iar_dlib_perthread_access
                        0x0800ef79     0x2  Code  Gb  xtls.o [4]
__iar_init_vfp          0x08010909          Code  Gb  fpinit_M.o [5]
__iar_lz77_init3        0x08010629   0x142  Code  Gb  lz77_init.o [6]
__iar_program_start     0x08010971          Code  Gb  cstartup_M.o [6]
__iar_zero_init3        0x08007bdf    0x22  Code  Gb  zero_init3.o [6]
__low_level_init        0x0801093b     0x4  Code  Gb  low_level_init.o [4]
__vector_table          0x08004000          Data  Gb  startup_stm32f4xx.o [2]
_call_main              0x08010931          Code  Gb  cmain.o [6]
_cipherKey              0x2000dbbc     0x4  Data  Lc  endecoder.o [1]
_decodeFeistel          0x0800cff5    0x4a  Code  Gb  endecoder.o [1]
_encodeFeistel          0x0800cfaf    0x46  Code  Gb  endecoder.o [1]
_exit                   0x08010945          Code  Gb  cexit.o [6]
_main                   0x08010937          Code  Gb  cmain.o [6]
aavm_mode_change        0x0800ce85    0x12  Code  Gb  LCD_Control.o [2]
aavm_mode_check         0x0800ce7d     0x8  Code  Gb  LCD_Control.o [2]
abort                   0x0801076b     0x6  Code  Gb  abort.o [4]
adc_value               0x200108a4     0x2  Data  Gb  WL9F_Monitor_APP.o [2]
assert_failed           0x08009657     0x2  Code  Gb  main.o [2]
cam_mode_change         0x0800ce69    0x14  Code  Gb  LCD_Control.o [2]
cam_mode_check          0x0800ce61     0x8  Code  Gb  LCD_Control.o [2]
can_status              0x20010768     0x1  Data  Gb  CAN_Control.o [2]
can_status_buf          0x2001076c    0x64  Data  Gb  CAN_Control.o [2]
can_tx_error_count      0x20010769     0x1  Data  Gb  CAN_Control.o [2]
check_as_data_len       0x20010620     0x1  Data  Gb  CAN_Control.o [2]
cmn_bot                 0x2000d988     0x1  Data  Gb  TW2835_Control.o [2]
cmn_cnt_vs_sub          0x2000d989     0x1  Data  Gb  TW2835_Control.o [2]
cmn_flg                 0x2000d98c     0x4  Data  Gb  TW2835_Control.o [2]
ct_CHANNEL              0x2000daec    0x50  Data  Gb  TW2835_OSD.o [2]
decode                  0x0800d09f    0x2c  Code  Gb  endecoder.o [1]
download_enable_code    0x2000c018     0x8  Data  Gb  M25PXX.o [2]
eepRomReadData1         0x2001086c    0x20  Data  Gb  WL9F_Monitor_APP.o [2]
encode                  0x0800d049    0x56  Code  Gb  endecoder.o [1]
exit                    0x0801093f     0x4  Code  Gb  exit.o [4]
expand                  0x0800cef9    0x4c  Code  Gb  endecoder.o [1]
expand_tb               0x08010950    0x10  Data  Gb  endecoder.o [1]
fatoryinit_enable_code  0x2000c020     0x8  Data  Gb  M25PXX.o [2]
flag_skip_multi_packet  0x20010621     0x1  Data  Gb  CAN_Control.o [2]
gAuthentication_Cnt     0x200108b0     0x1  Data  Gb  WL9F_Monitor_APP.o [2]
gRebootCmd              0x20010836     0x1  Data  Gb  WL9F_Monitor_APP.o [2]
gRetryCheck             0x200108b1     0x1  Data  Gb  WL9F_Monitor_APP.o [2]
getKey                  0x0800cf7f    0x30  Code  Gb  endecoder.o [1]
gt_CHANNEL_CH1_O        0x2000c838   0x378  Data  Gb  TW2835_OSD.o [2]
gt_CHANNEL_CH2_O        0x2000cbb0   0x378  Data  Gb  TW2835_OSD.o [2]
gt_CHANNEL_CH3_O        0x2000cf28   0x378  Data  Gb  TW2835_OSD.o [2]
gt_CHANNEL_CH4_O        0x2000d2a0   0x378  Data  Gb  TW2835_OSD.o [2]
gt_CHANNEL_blank        0x200071e8  0x2718  Data  Gb  TW2835_OSD.o [2]
gt_CHANNEL_x            0x20009900  0x2718  Data  Gb  TW2835_OSD.o [2]
main                    0x08009625     0xa  Code  Gb  main.o [2]
memcmp                  0x0800f949          Code  Gb  memcmp.o [6]
memset                  0x0800ffcb    0x14  Code  Gb  CAN_Control.o [2]
pReadBufPos             0x200100f0     0x2  Data  Gb  stm32f4xx_it.o [2]
pWriteBufPos            0x200100ee     0x2  Data  Gb  stm32f4xx_it.o [2]
pgn                     0x200100f8     0x4  Data  Gb  stm32f4xx_it.o [2]
rand                    0x0800b14d    0xe0  Code  Gb  rand.o [4]
rand_value              0x200108c4     0x8  Data  Gb  WL9F_Monitor_APP.o [2]
read_RTC_Companion      0x0800ad8f    0x28  Code  Gb  RTC.o [2]
read_clock              0x08009ce7    0x52  Code  Gb  WL9F_Monitor_APP.o [2]
recv_smartkey           0x200108a8     0x8  Data  Gb  WL9F_Monitor_APP.o [2]
ring_buf                0x200100fc   0x300  Data  Gb  stm32f4xx_it.o [2]
rx_CMD_LAMP             0x200107d4     0x8  Data  Gb  LAMP_Control.o [2]
rx_Realy_Control        0x2001091c     0x8  Data  Gb  LAMP_Control.o [2]
s_boxA                  0x08010874    0x40  Data  Gb  endecoder.o [1]
send_smartkey           0x200108bc     0x8  Data  Gb  WL9F_Monitor_APP.o [2]
setCipherParam          0x0800d03f     0xa  Code  Gb  endecoder.o [1]
smk_flag_data           0x200108cc     0x4  Data  Gb  WL9F_Monitor_APP.o [2]
tbl_ntsc_pg2_2dbox      0x2000d9e0    0x20  Data  Gb  TW2835_Control.o [2]
tbl_ntsc_pg2_mtn        0x2000da00    0x20  Data  Gb  TW2835_Control.o [2]
tbl_pal_pg2_2dbox       0x2000da20    0x20  Data  Gb  TW2835_Control.o [2]
tbl_pal_pg2_mtn         0x2000da40    0x20  Data  Gb  TW2835_Control.o [2]
tbl_pg2_mse_box         0x2000d990    0x50  Data  Gb  TW2835_Control.o [2]
temp1024                0x2000c034   0x400  Data  Gb  M25PXX.o [2]
temp3                   0x2000c02c     0x8  Data  Gb  M25PXX.o [2]
temp_crc                0x2000c02a     0x2  Data  Gb  M25PXX.o [2]
tmpBuf                  0x20010630     0x8  Data  Gb  CAN_Control.o [2]
tp_cm_bam               0x20010628     0x4  Data  Gb  CAN_Control.o [2]
write_RTC_Companion     0x0800ad6b    0x1a  Code  Gb  RTC.o [2]


[1] = C:\Tools\WL9F\WLF Monitor - STM32_APP\TEST_AAVM\Platform\COMMON\SRC
[2] = C:\Tools\WL9F\WLF Monitor - STM32_APP\TEST_AAVM\Project\Debug\Obj
[3] = command line
[4] = dl7M_tlf.a
[5] = m7M_tlv.a
[6] = rt7M_tl.a
[7] = shb_l.a

  51 818 bytes of readonly  code memory
   6 910 bytes of readonly  data memory
  69 984 bytes of readwrite data memory

Errors: none
Warnings: none
